target datalayout = "e-m:e-p270:32:32-p271:32:32-p272:64:64-i64:64-i128:128-f80:128-n8:16:32:64-S128"
target triple = "x86_64-unknown-linux-gnu"

%"struct.re2::CaseFold" = type { i32, i32, i32 }

; Function Attrs: mustprogress nounwind uwtable
define noundef ptr @_ZN3re214LookupCaseFoldEPKNS_8CaseFoldEii(ptr noundef %f, i32 noundef %n, i32 noundef %r) #0 {
entry:
  %retval = alloca ptr, align 8
  %f.addr = alloca ptr, align 8
  %n.addr = alloca i32, align 4
  %r.addr = alloca i32, align 4
  %ef = alloca ptr, align 8
  %m = alloca i32, align 4
  store ptr %f, ptr %f.addr, align 8
  store i32 %n, ptr %n.addr, align 4
  store i32 %r, ptr %r.addr, align 4
  %0 = load ptr, ptr %f.addr, align 8
  %1 = load i32, ptr %n.addr, align 4
  %idx.ext = sext i32 %1 to i64
  %add.ptr = getelementptr inbounds %"struct.re2::CaseFold", ptr %0, i64 %idx.ext
  store ptr %add.ptr, ptr %ef, align 8
  br label %while.cond

while.cond:                                       ; preds = %if.end15, %entry
  %2 = load i32, ptr %n.addr, align 4
  %cmp = icmp sgt i32 %2, 0
  br i1 %cmp, label %while.body, label %while.end

while.body:                                       ; preds = %while.cond
  %3 = load i32, ptr %n.addr, align 4
  %div = sdiv i32 %3, 2
  store i32 %div, ptr %m, align 4
  %4 = load ptr, ptr %f.addr, align 8
  %5 = load i32, ptr %m, align 4
  %idxprom = sext i32 %5 to i64
  %arrayidx = getelementptr inbounds %"struct.re2::CaseFold", ptr %4, i64 %idxprom
  %lo = getelementptr inbounds %"struct.re2::CaseFold", ptr %arrayidx, i32 0, i32 0
  %6 = load i32, ptr %lo, align 4
  %7 = load i32, ptr %r.addr, align 4
  %cmp1 = icmp sle i32 %6, %7
  br i1 %cmp1, label %land.lhs.true, label %if.end

land.lhs.true:                                    ; preds = %while.body
  %8 = load i32, ptr %r.addr, align 4
  %9 = load ptr, ptr %f.addr, align 8
  %10 = load i32, ptr %m, align 4
  %idxprom2 = sext i32 %10 to i64
  %arrayidx3 = getelementptr inbounds %"struct.re2::CaseFold", ptr %9, i64 %idxprom2
  %hi = getelementptr inbounds %"struct.re2::CaseFold", ptr %arrayidx3, i32 0, i32 1
  %11 = load i32, ptr %hi, align 4
  %cmp4 = icmp sle i32 %8, %11
  br i1 %cmp4, label %if.then, label %if.end

if.then:                                          ; preds = %land.lhs.true
  %12 = load ptr, ptr %f.addr, align 8
  %13 = load i32, ptr %m, align 4
  %idxprom5 = sext i32 %13 to i64
  %arrayidx6 = getelementptr inbounds %"struct.re2::CaseFold", ptr %12, i64 %idxprom5
  store ptr %arrayidx6, ptr %retval, align 8
  br label %return

if.end:                                           ; preds = %land.lhs.true, %while.body
  %14 = load i32, ptr %r.addr, align 4
  %15 = load ptr, ptr %f.addr, align 8
  %16 = load i32, ptr %m, align 4
  %idxprom7 = sext i32 %16 to i64
  %arrayidx8 = getelementptr inbounds %"struct.re2::CaseFold", ptr %15, i64 %idxprom7
  %lo9 = getelementptr inbounds %"struct.re2::CaseFold", ptr %arrayidx8, i32 0, i32 0
  %17 = load i32, ptr %lo9, align 4
  %cmp10 = icmp slt i32 %14, %17
  br i1 %cmp10, label %if.then11, label %if.else

if.then11:                                        ; preds = %if.end
  %18 = load i32, ptr %m, align 4
  store i32 %18, ptr %n.addr, align 4
  br label %if.end15

if.else:                                          ; preds = %if.end
  %19 = load i32, ptr %m, align 4
  %add = add nsw i32 %19, 1
  %20 = load ptr, ptr %f.addr, align 8
  %idx.ext12 = sext i32 %add to i64
  %add.ptr13 = getelementptr inbounds %"struct.re2::CaseFold", ptr %20, i64 %idx.ext12
  store ptr %add.ptr13, ptr %f.addr, align 8
  %21 = load i32, ptr %m, align 4
  %add14 = add nsw i32 %21, 1
  %22 = load i32, ptr %n.addr, align 4
  %sub = sub nsw i32 %22, %add14
  store i32 %sub, ptr %n.addr, align 4
  br label %if.end15

if.end15:                                         ; preds = %if.else, %if.then11
  br label %while.cond, !llvm.loop !7

while.end:                                        ; preds = %while.cond
  %23 = load ptr, ptr %f.addr, align 8
  %24 = load ptr, ptr %ef, align 8
  %cmp16 = icmp ult ptr %23, %24
  br i1 %cmp16, label %if.then17, label %if.end18

if.then17:                                        ; preds = %while.end
  %25 = load ptr, ptr %f.addr, align 8
  store ptr %25, ptr %retval, align 8
  br label %return

if.end18:                                         ; preds = %while.end
  store ptr null, ptr %retval, align 8
  br label %return

return:                                           ; preds = %if.end18, %if.then17, %if.then
  %26 = load ptr, ptr %retval, align 8
  ret ptr %26
}