; Function Attrs: mustprogress nofree norecurse nosync nounwind willreturn memory(read, inaccessiblemem: none) uwtable
define noundef ptr @_ZN3re214LookupCaseFoldEPKNS_8CaseFoldEii(ptr noundef readonly %f, i32 noundef %n, i32 noundef %r) local_unnamed_addr #11 {
entry:
  %idx.ext = sext i32 %n to i64
  %add.ptr = getelementptr inbounds %"struct.re2::CaseFold", ptr %f, i64 %idx.ext
  %cmp21 = icmp sgt i32 %n, 0
  br i1 %cmp21, label %while.body, label %while.end

while.body:                                       ; preds = %entry, %if.end
  %f.addr.023 = phi ptr [ %f.addr.1, %if.end ], [ %f, %entry ]
  %n.addr.022 = phi i32 [ %n.addr.1, %if.end ], [ %n, %entry ]
  %div19 = lshr i32 %n.addr.022, 1
  %idxprom = zext nneg i32 %div19 to i64
  %arrayidx = getelementptr inbounds %"struct.re2::CaseFold", ptr %f.addr.023, i64 %idxprom
  %0 = load i32, ptr %arrayidx, align 4
  %cmp1.not = icmp sgt i32 %0, %r
  br i1 %cmp1.not, label %if.end, label %land.lhs.true

land.lhs.true:                                    ; preds = %while.body
  %hi = getelementptr inbounds i8, ptr %arrayidx, i64 4
  %1 = load i32, ptr %hi, align 4
  %cmp4.not = icmp slt i32 %1, %r
  br i1 %cmp4.not, label %if.end, label %return

if.end:                                           ; preds = %land.lhs.true, %while.body
  %add = add nuw nsw i32 %div19, 1
  %sub = sub nsw i32 %n.addr.022, %add
  %n.addr.1 = select i1 %cmp1.not, i32 %div19, i32 %sub
  %narrow = select i1 %cmp1.not, i32 0, i32 %add
  %f.addr.1.idx = zext nneg i32 %narrow to i64
  %f.addr.1 = getelementptr inbounds %"struct.re2::CaseFold", ptr %f.addr.023, i64 %f.addr.1.idx
  %cmp = icmp sgt i32 %n.addr.1, 0
  br i1 %cmp, label %while.body, label %while.end, !llvm.loop !7

while.end:                                        ; preds = %if.end, %entry
  %f.addr.0.lcssa = phi ptr [ %f, %entry ], [ %f.addr.1, %if.end ]
  %cmp16 = icmp ult ptr %f.addr.0.lcssa, %add.ptr
  %f.addr.0. = select i1 %cmp16, ptr %f.addr.0.lcssa, ptr null
  br label %return

return:                                           ; preds = %land.lhs.true, %while.end
  %retval.0 = phi ptr [ %f.addr.0., %while.end ], [ %arrayidx, %land.lhs.true ]
  ret ptr %retval.0
}